; ModuleID = '55/484.c'
source_filename = "55/484.c"
target datalayout = "e-m:e-p270:32:32-p271:32:32-p272:64:64-i64:64-f80:128-n8:16:32:64-S128"
target triple = "x86_64-pc-linux-gnu"

@.str = private unnamed_addr constant [7 x i8] c"%d%s%d\00", align 1
@.str.1 = private unnamed_addr constant [3 x i8] c"%c\00", align 1
@.str.2 = private unnamed_addr constant [2 x i8] c"0\00", align 1

; Function Attrs: noinline nounwind uwtable
define dso_local void @main() #0 {
  %1 = alloca i32, align 4
  %2 = alloca i32, align 4
  %3 = alloca i32, align 4
  %4 = alloca i32, align 4
  %5 = alloca [100 x i32], align 16
  %6 = alloca i32, align 4
  %7 = alloca i32, align 4
  %8 = alloca i32, align 4
  %9 = alloca i64, align 8
  %10 = alloca [100 x i8], align 16
  store i32 0, i32* %3, align 4
  store i32 1, i32* %6, align 4
  store i32 0, i32* %7, align 4
  store i32 0, i32* %8, align 4
  store i64 0, i64* %9, align 8
  %11 = getelementptr inbounds [100 x i8], [100 x i8]* %10, i64 0, i64 0
  %12 = call i32 (i8*, ...) @__isoc99_scanf(i8* getelementptr inbounds ([7 x i8], [7 x i8]* @.str, i64 0, i64 0), i32* %1, i8* %11, i32* %2)
  %13 = getelementptr inbounds [100 x i8], [100 x i8]* %10, i64 0, i64 0
  %14 = call i64 @strlen(i8* %13) #3
  %15 = trunc i64 %14 to i32
  store i32 %15, i32* %3, align 4
  store i32 0, i32* %4, align 4
  br label %16

16:                                               ; preds = %69, %0
  %17 = load i32, i32* %4, align 4
  %18 = sext i32 %17 to i64
  %19 = getelementptr inbounds [100 x i8], [100 x i8]* %10, i64 0, i64 %18
  %20 = load i8, i8* %19, align 1
  %21 = sext i8 %20 to i32
  %22 = icmp ne i32 %21, 0
  br i1 %22, label %23, label %72

23:                                               ; preds = %16
  %24 = load i32, i32* %4, align 4
  %25 = sext i32 %24 to i64
  %26 = getelementptr inbounds [100 x i8], [100 x i8]* %10, i64 0, i64 %25
  %27 = load i8, i8* %26, align 1
  %28 = sext i8 %27 to i32
  %29 = icmp sge i32 %28, 97
  br i1 %29, label %30, label %40

30:                                               ; preds = %23
  %31 = load i32, i32* %4, align 4
  %32 = sext i32 %31 to i64
  %33 = getelementptr inbounds [100 x i8], [100 x i8]* %10, i64 0, i64 %32
  %34 = load i8, i8* %33, align 1
  %35 = sext i8 %34 to i32
  %36 = sub nsw i32 %35, 87
  %37 = load i32, i32* %4, align 4
  %38 = sext i32 %37 to i64
  %39 = getelementptr inbounds [100 x i32], [100 x i32]* %5, i64 0, i64 %38
  store i32 %36, i32* %39, align 4
  br label %68

40:                                               ; preds = %23
  %41 = load i32, i32* %4, align 4
  %42 = sext i32 %41 to i64
  %43 = getelementptr inbounds [100 x i8], [100 x i8]* %10, i64 0, i64 %42
  %44 = load i8, i8* %43, align 1
  %45 = sext i8 %44 to i32
  %46 = icmp sge i32 %45, 65
  br i1 %46, label %47, label %57

47:                                               ; preds = %40
  %48 = load i32, i32* %4, align 4
  %49 = sext i32 %48 to i64
  %50 = getelementptr inbounds [100 x i8], [100 x i8]* %10, i64 0, i64 %49
  %51 = load i8, i8* %50, align 1
  %52 = sext i8 %51 to i32
  %53 = sub nsw i32 %52, 55
  %54 = load i32, i32* %4, align 4
  %55 = sext i32 %54 to i64
  %56 = getelementptr inbounds [100 x i32], [100 x i32]* %5, i64 0, i64 %55
  store i32 %53, i32* %56, align 4
  br label %67

57:                                               ; preds = %40
  %58 = load i32, i32* %4, align 4
  %59 = sext i32 %58 to i64
  %60 = getelementptr inbounds [100 x i8], [100 x i8]* %10, i64 0, i64 %59
  %61 = load i8, i8* %60, align 1
  %62 = sext i8 %61 to i32
  %63 = sub nsw i32 %62, 48
  %64 = load i32, i32* %4, align 4
  %65 = sext i32 %64 to i64
  %66 = getelementptr inbounds [100 x i32], [100 x i32]* %5, i64 0, i64 %65
  store i32 %63, i32* %66, align 4
  br label %67

67:                                               ; preds = %57, %47
  br label %68

68:                                               ; preds = %67, %30
  br label %69

69:                                               ; preds = %68
  %70 = load i32, i32* %4, align 4
  %71 = add nsw i32 %70, 1
  store i32 %71, i32* %4, align 4
  br label %16

72:                                               ; preds = %16
  %73 = load i32, i32* %3, align 4
  %74 = sub nsw i32 %73, 1
  store i32 %74, i32* %4, align 4
  br label %75

75:                                               ; preds = %91, %72
  %76 = load i32, i32* %4, align 4
  %77 = icmp sge i32 %76, 0
  br i1 %77, label %78, label %94

78:                                               ; preds = %75
  %79 = load i32, i32* %4, align 4
  %80 = sext i32 %79 to i64
  %81 = getelementptr inbounds [100 x i32], [100 x i32]* %5, i64 0, i64 %80
  %82 = load i32, i32* %81, align 4
  %83 = load i32, i32* %6, align 4
  %84 = mul nsw i32 %82, %83
  %85 = sext i32 %84 to i64
  %86 = load i64, i64* %9, align 8
  %87 = add nsw i64 %86, %85
  store i64 %87, i64* %9, align 8
  %88 = load i32, i32* %1, align 4
  %89 = load i32, i32* %6, align 4
  %90 = mul nsw i32 %89, %88
  store i32 %90, i32* %6, align 4
  br label %91

91:                                               ; preds = %78
  %92 = load i32, i32* %4, align 4
  %93 = add nsw i32 %92, -1
  store i32 %93, i32* %4, align 4
  br label %75

94:                                               ; preds = %75
  store i32 0, i32* %4, align 4
  store i32 1, i32* %6, align 4
  br label %95

95:                                               ; preds = %122, %94
  %96 = load i64, i64* %9, align 8
  %97 = icmp sgt i64 %96, 0
  br i1 %97, label %98, label %125

98:                                               ; preds = %95
  %99 = load i64, i64* %9, align 8
  %100 = load i32, i32* %2, align 4
  %101 = sext i32 %100 to i64
  %102 = srem i64 %99, %101
  %103 = trunc i64 %102 to i32
  %104 = load i32, i32* %4, align 4
  %105 = sext i32 %104 to i64
  %106 = getelementptr inbounds [100 x i32], [100 x i32]* %5, i64 0, i64 %105
  store i32 %103, i32* %106, align 4
  %107 = load i64, i64* %9, align 8
  %108 = load i32, i32* %4, align 4
  %109 = sext i32 %108 to i64
  %110 = getelementptr inbounds [100 x i32], [100 x i32]* %5, i64 0, i64 %109
  %111 = load i32, i32* %110, align 4
  %112 = sext i32 %111 to i64
  %113 = sub nsw i64 %107, %112
  %114 = load i32, i32* %2, align 4
  %115 = sext i32 %114 to i64
  %116 = sdiv i64 %113, %115
  store i64 %116, i64* %9, align 8
  %117 = load i32, i32* %2, align 4
  %118 = load i32, i32* %6, align 4
  %119 = mul nsw i32 %118, %117
  store i32 %119, i32* %6, align 4
  %120 = load i32, i32* %7, align 4
  %121 = add nsw i32 %120, 1
  store i32 %121, i32* %7, align 4
  br label %122

122:                                              ; preds = %98
  %123 = load i32, i32* %4, align 4
  %124 = add nsw i32 %123, 1
  store i32 %124, i32* %4, align 4
  br label %95

125:                                              ; preds = %95
  %126 = load i32, i32* %7, align 4
  %127 = sub nsw i32 %126, 1
  store i32 %127, i32* %4, align 4
  br label %128

128:                                              ; preds = %164, %125
  %129 = load i32, i32* %4, align 4
  %130 = icmp sge i32 %129, 0
  br i1 %130, label %131, label %167

131:                                              ; preds = %128
  %132 = load i32, i32* %4, align 4
  %133 = sext i32 %132 to i64
  %134 = getelementptr inbounds [100 x i32], [100 x i32]* %5, i64 0, i64 %133
  %135 = load i32, i32* %134, align 4
  %136 = icmp slt i32 %135, 10
  br i1 %136, label %137, label %147

137:                                              ; preds = %131
  %138 = load i32, i32* %4, align 4
  %139 = sext i32 %138 to i64
  %140 = getelementptr inbounds [100 x i32], [100 x i32]* %5, i64 0, i64 %139
  %141 = load i32, i32* %140, align 4
  %142 = add nsw i32 %141, 48
  %143 = trunc i32 %142 to i8
  %144 = load i32, i32* %4, align 4
  %145 = sext i32 %144 to i64
  %146 = getelementptr inbounds [100 x i8], [100 x i8]* %10, i64 0, i64 %145
  store i8 %143, i8* %146, align 1
  br label %157

147:                                              ; preds = %131
  %148 = load i32, i32* %4, align 4
  %149 = sext i32 %148 to i64
  %150 = getelementptr inbounds [100 x i32], [100 x i32]* %5, i64 0, i64 %149
  %151 = load i32, i32* %150, align 4
  %152 = add nsw i32 %151, 55
  %153 = trunc i32 %152 to i8
  %154 = load i32, i32* %4, align 4
  %155 = sext i32 %154 to i64
  %156 = getelementptr inbounds [100 x i8], [100 x i8]* %10, i64 0, i64 %155
  store i8 %153, i8* %156, align 1
  br label %157

157:                                              ; preds = %147, %137
  %158 = load i32, i32* %4, align 4
  %159 = sext i32 %158 to i64
  %160 = getelementptr inbounds [100 x i8], [100 x i8]* %10, i64 0, i64 %159
  %161 = load i8, i8* %160, align 1
  %162 = sext i8 %161 to i32
  %163 = call i32 (i8*, ...) @printf(i8* getelementptr inbounds ([3 x i8], [3 x i8]* @.str.1, i64 0, i64 0), i32 %162)
  store i32 1, i32* %8, align 4
  br label %164

164:                                              ; preds = %157
  %165 = load i32, i32* %4, align 4
  %166 = add nsw i32 %165, -1
  store i32 %166, i32* %4, align 4
  br label %128

167:                                              ; preds = %128
  %168 = load i32, i32* %8, align 4
  %169 = icmp eq i32 %168, 0
  br i1 %169, label %170, label %172

170:                                              ; preds = %167
  %171 = call i32 (i8*, ...) @printf(i8* getelementptr inbounds ([2 x i8], [2 x i8]* @.str.2, i64 0, i64 0))
  br label %172

172:                                              ; preds = %170, %167
  ret void
}

declare dso_local i32 @__isoc99_scanf(i8*, ...) #1

; Function Attrs: nounwind readonly
declare dso_local i64 @strlen(i8*) #2

declare dso_local i32 @printf(i8*, ...) #1


!llvm.module.flags = !{!0}
!llvm.ident = !{!1}

!0 = !{i32 1, !"wchar_size", i32 4}
!1 = !{!"clang version 10.0.0-4ubuntu1 "}
